target datalayout = "e-m:e-p270:32:32-p271:32:32-p272:64:64-i64:64-i128:128-f80:128-n8:16:32:64-S128"
target triple = "x86_64-pc-linux-gnu"

%"class.llvm::RISCVAsmBackend" = type { %"class.llvm::MCAsmBackend", ptr, i8, i8, i8, ptr }
%"class.llvm::MCAsmBackend" = type { ptr, i32, i32 }
%"class.llvm::MCSubtargetInfo" = type { ptr, %"class.llvm::Triple", %"class.std::__cxx11::basic_string", %"class.std::__cxx11::basic_string", %"class.llvm::ArrayRef", %"class.llvm::ArrayRef.0", ptr, ptr, ptr, ptr, ptr, ptr, ptr, %"class.llvm::FeatureBitset", %"class.std::__cxx11::basic_string" }
%"class.llvm::Triple" = type { %"class.std::__cxx11::basic_string", i32, i32, i32, i32, i32, i32 }
%"class.llvm::ArrayRef" = type { ptr, i64 }
%"class.llvm::ArrayRef.0" = type { ptr, i64 }
%"class.llvm::FeatureBitset" = type { %"struct.std::array" }
%"struct.std::array" = type { [5 x i64] }
%"class.std::__cxx11::basic_string" = type { %"struct.std::__cxx11::basic_string<char>::_Alloc_hider", i64, %union.anon }
%"struct.std::__cxx11::basic_string<char>::_Alloc_hider" = type { ptr }
%union.anon = type { i64, [8 x i8] }
%"class.llvm::MCFixup" = type { ptr, i32, i32, %"class.llvm::SMLoc" }
%"class.llvm::SMLoc" = type { ptr }
%"class.llvm::MCValue" = type <{ ptr, ptr, i64, i32, [4 x i8] }>

; Function Attrs: mustprogress nounwind uwtable
define linkonce_odr hidden noundef nonnull align 8 dereferenceable(8) ptr @_ZNSt14__array_traitsImLm5EE6_S_refERA5_Kmm(ptr noundef nonnull align 8 dereferenceable(40) %0, i64 noundef %1) #1 comdat align 2 {
  %3 = alloca ptr, align 8
  %4 = alloca i64, align 8
  store ptr %0, ptr %3, align 8
  store i64 %1, ptr %4, align 8
  %5 = load ptr, ptr %3, align 8
  %6 = load i64, ptr %4, align 8
  %7 = getelementptr inbounds [5 x i64], ptr %5, i64 0, i64 %6
  ret ptr %7
}

; Function Attrs: mustprogress nounwind uwtable
define linkonce_odr hidden noundef nonnull align 8 dereferenceable(8) ptr @_ZNKSt5arrayImLm5EEixEm(ptr noundef nonnull align 8 dereferenceable(40) %0, i64 noundef %1) #1 comdat align 2 {
  %3 = alloca ptr, align 8
  %4 = alloca i64, align 8
  store ptr %0, ptr %3, align 8
  store i64 %1, ptr %4, align 8
  %5 = load ptr, ptr %3, align 8
  %6 = getelementptr inbounds nuw %"struct.std::array", ptr %5, i32 0, i32 0
  %7 = load i64, ptr %4, align 8
  %8 = call noundef nonnull align 8 dereferenceable(8) ptr @_ZNSt14__array_traitsImLm5EE6_S_refERA5_Kmm(ptr noundef nonnull align 8 dereferenceable(40) %6, i64 noundef %7) #2
  ret ptr %8
}

; Function Attrs: mustprogress nounwind uwtable
define linkonce_odr hidden noundef zeroext i1 @_ZNK4llvm13FeatureBitsetixEj(ptr noundef nonnull align 8 dereferenceable(40) %0, i32 noundef %1) #1 comdat align 2 {
  %3 = alloca ptr, align 8
  %4 = alloca i32, align 4
  %5 = alloca i64, align 8
  store ptr %0, ptr %3, align 8
  store i32 %1, ptr %4, align 4
  %6 = load ptr, ptr %3, align 8
  %7 = load i32, ptr %4, align 4
  %8 = urem i32 %7, 64
  %9 = zext i32 %8 to i64
  %10 = shl i64 1, %9
  store i64 %10, ptr %5, align 8
  %11 = getelementptr inbounds nuw %"class.llvm::FeatureBitset", ptr %6, i32 0, i32 0
  %12 = load i32, ptr %4, align 4
  %13 = udiv i32 %12, 64
  %14 = zext i32 %13 to i64
  %15 = call noundef nonnull align 8 dereferenceable(8) ptr @_ZNKSt5arrayImLm5EEixEm(ptr noundef nonnull align 8 dereferenceable(40) %11, i64 noundef %14) #2
  %16 = load i64, ptr %15, align 8
  %17 = load i64, ptr %5, align 8
  %18 = and i64 %16, %17
  %19 = icmp ne i64 %18, 0
  ret i1 %19
}

; Function Attrs: mustprogress nounwind uwtable
define linkonce_odr hidden noundef zeroext i1 @_ZNK4llvm15MCSubtargetInfo10hasFeatureEj(ptr noundef nonnull align 8 dereferenceable(288) %0, i32 noundef %1) #1 comdat align 2 {
  %3 = alloca ptr, align 8
  %4 = alloca i32, align 4
  store ptr %0, ptr %3, align 8
  store i32 %1, ptr %4, align 4
  %5 = load ptr, ptr %3, align 8
  %6 = getelementptr inbounds nuw %"class.llvm::MCSubtargetInfo", ptr %5, i32 0, i32 13
  %7 = load i32, ptr %4, align 4
  %8 = call noundef zeroext i1 @_ZNK4llvm13FeatureBitsetixEj(ptr noundef nonnull align 8 dereferenceable(40) %6, i32 noundef %7)
  ret i1 %8
}

; Function Attrs: mustprogress nounwind uwtable
define linkonce_odr hidden noundef zeroext i1 @_ZNK4llvm7MCValue10isAbsoluteEv(ptr noundef nonnull align 8 dereferenceable(28) %0) #1 comdat align 2 {
  %2 = alloca ptr, align 8
  store ptr %0, ptr %2, align 8
  %3 = load ptr, ptr %2, align 8
  %4 = getelementptr inbounds nuw %"class.llvm::MCValue", ptr %3, i32 0, i32 0
  %5 = load ptr, ptr %4, align 8
  %6 = icmp ne ptr %5, null
  br i1 %6, label %12, label %7

7:                                                ; preds = %1
  %8 = getelementptr inbounds nuw %"class.llvm::MCValue", ptr %3, i32 0, i32 1
  %9 = load ptr, ptr %8, align 8
  %10 = icmp ne ptr %9, null
  %11 = xor i1 %10, true
  br label %12

12:                                               ; preds = %7, %1
  %13 = phi i1 [ false, %1 ], [ %11, %7 ]
  ret i1 %13
}

; Function Attrs: mustprogress nounwind uwtable
define linkonce_odr hidden noundef i32 @_ZNK4llvm7MCFixup13getTargetKindEv(ptr noundef nonnull align 8 dereferenceable(24) %0) #1 comdat align 2 {
  %2 = alloca ptr, align 8
  store ptr %0, ptr %2, align 8
  %3 = load ptr, ptr %2, align 8
  %4 = getelementptr inbounds nuw %"class.llvm::MCFixup", ptr %3, i32 0, i32 2
  %5 = load i32, ptr %4, align 4
  ret i32 %5
}

; Function Attrs: mustprogress nounwind uwtable
define linkonce_odr hidden noundef i32 @_ZNK4llvm7MCFixup7getKindEv(ptr noundef nonnull align 8 dereferenceable(24) %0) #1 comdat align 2 {
  %2 = alloca ptr, align 8
  store ptr %0, ptr %2, align 8
  %3 = load ptr, ptr %2, align 8
  %4 = getelementptr inbounds nuw %"class.llvm::MCFixup", ptr %3, i32 0, i32 2
  %5 = load i32, ptr %4, align 4
  ret i32 %5
}

; Function Attrs: mustprogress nounwind uwtable
define dso_local noundef zeroext i1 @_ZN4llvm15RISCVAsmBackend21shouldForceRelocationERKNS_11MCAssemblerERKNS_7MCFixupERKNS_7MCValueEPKNS_15MCSubtargetInfoE(ptr noundef nonnull align 8 dereferenceable(40) %0, ptr noundef nonnull align 8 dereferenceable(372) %1, ptr noundef nonnull align 8 dereferenceable(24) %2, ptr noundef nonnull align 8 dereferenceable(28) %3, ptr noundef %4) unnamed_addr #1 align 2 {
  %6 = alloca i1, align 1
  %7 = alloca ptr, align 8
  %8 = alloca ptr, align 8
  %9 = alloca ptr, align 8
  %10 = alloca ptr, align 8
  %11 = alloca ptr, align 8
  store ptr %0, ptr %7, align 8
  store ptr %1, ptr %8, align 8
  store ptr %2, ptr %9, align 8
  store ptr %3, ptr %10, align 8
  store ptr %4, ptr %11, align 8
  %12 = load ptr, ptr %7, align 8
  %13 = load ptr, ptr %9, align 8
  %14 = call noundef i32 @_ZNK4llvm7MCFixup7getKindEv(ptr noundef nonnull align 8 dereferenceable(24) %13)
  %15 = icmp sge i32 %14, 256
  br i1 %15, label %16, label %17

16:                                               ; preds = %5
  store i1 true, ptr %6, align 1
  br label %36

17:                                               ; preds = %5
  %18 = load ptr, ptr %9, align 8
  %19 = call noundef i32 @_ZNK4llvm7MCFixup13getTargetKindEv(ptr noundef nonnull align 8 dereferenceable(24) %18)
  switch i32 %19, label %20 [
    i32 1, label %21
    i32 2, label %21
    i32 3, label %21
    i32 4, label %21
    i32 5, label %21
    i32 135, label %26
    i32 140, label %26
    i32 141, label %26
    i32 150, label %26
  ]

20:                                               ; preds = %17
  br label %27

21:                                               ; preds = %17, %17, %17, %17, %17
  %22 = load ptr, ptr %10, align 8
  %23 = call noundef zeroext i1 @_ZNK4llvm7MCValue10isAbsoluteEv(ptr noundef nonnull align 8 dereferenceable(28) %22)
  br i1 %23, label %24, label %25

24:                                               ; preds = %21
  store i1 false, ptr %6, align 1
  br label %36

25:                                               ; preds = %21
  br label %27

26:                                               ; preds = %17, %17, %17, %17
  store i1 true, ptr %6, align 1
  br label %36

27:                                               ; preds = %25, %20
  %28 = load ptr, ptr %11, align 8
  %29 = call noundef zeroext i1 @_ZNK4llvm15MCSubtargetInfo10hasFeatureEj(ptr noundef nonnull align 8 dereferenceable(288) %28, i32 noundef 9)
  br i1 %29, label %34, label %30

30:                                               ; preds = %27
  %31 = getelementptr inbounds nuw %"class.llvm::RISCVAsmBackend", ptr %12, i32 0, i32 4
  %32 = load i8, ptr %31, align 2
  %33 = trunc i8 %32 to i1
  br label %34

34:                                               ; preds = %30, %27
  %35 = phi i1 [ true, %27 ], [ %33, %30 ]
  store i1 %35, ptr %6, align 1
  br label %36

36:                                               ; preds = %34, %26, %24, %16
  %37 = load i1, ptr %6, align 1
  ret i1 %37
}