; Function Attrs: mustprogress nofree norecurse nosync nounwind willreturn memory(argmem: read) uwtable
define dso_local noundef zeroext i1 @_ZN4llvm15RISCVAsmBackend21shouldForceRelocationERKNS_11MCAssemblerERKNS_7MCFixupERKNS_7MCValueEPKNS_15MCSubtargetInfoE(ptr nocapture noundef nonnull readonly align 8 dereferenceable(40) %0, ptr nocapture nonnull readnone align 8 %1, ptr nocapture noundef nonnull readonly align 8 dereferenceable(24) %2, ptr nocapture noundef nonnull readonly align 8 dereferenceable(28) %3, ptr nocapture noundef readonly %4) unnamed_addr #5 align 2 {
  %6 = getelementptr inbounds nuw i8, ptr %2, i64 12
  %7 = load i32, ptr %6, align 4
  %8 = icmp sgt i32 %7, 255
  br i1 %8, label %24, label %9

9:                                                ; preds = %5
  switch i32 %7, label %15 [
    i32 1, label %10
    i32 2, label %10
    i32 3, label %10
    i32 4, label %10
    i32 5, label %10
    i32 135, label %24
    i32 140, label %24
    i32 141, label %24
    i32 150, label %24
  ]

10:                                               ; preds = %9, %9, %9, %9, %9
  %11 = load ptr, ptr %3, align 8
  %.not.i = icmp eq ptr %11, null
  %12 = getelementptr inbounds nuw i8, ptr %3, i64 8
  %13 = load ptr, ptr %12, align 8
  %.not1.i = icmp eq ptr %13, null
  %14 = select i1 %.not.i, i1 %.not1.i, i1 false
  br i1 %14, label %24, label %15

15:                                               ; preds = %10, %9
  %16 = getelementptr inbounds nuw i8, ptr %4, i64 216
  %17 = load i64, ptr %16, align 8
  %18 = and i64 %17, 512
  %19 = icmp ne i64 %18, 0
  %20 = getelementptr inbounds nuw i8, ptr %0, i64 26
  %21 = load i8, ptr %20, align 2
  %22 = trunc i8 %21 to i1
  %23 = select i1 %19, i1 true, i1 %22
  br label %24

24:                                               ; preds = %9, %9, %9, %9, %10, %5, %15
  %.0 = phi i1 [ %23, %15 ], [ true, %5 ], [ false, %10 ], [ true, %9 ], [ true, %9 ], [ true, %9 ], [ true, %9 ]
  ret i1 %.0
}